BL51 BANKED LINKER/LOCATER V6.22                                                        07/22/2014  14:58:07  PAGE 1


BL51 BANKED LINKER/LOCATER V6.22, INVOKED BY:
D:\PROGRAM FILES (X86)\KEIL\C51\BIN\BL51.EXE Main_Wireless.obj, .\voice.obj, .\UART.obj, .\pwm.obj, .\Other.obj, .\Delay
>> .obj, .\operation.obj, .\communication.obj, .\Battery.obj, .\AD.obj, .\Timer.obj TO Product_Test_Wireless


MEMORY MODEL: SMALL


INPUT MODULES INCLUDED:
  Main_Wireless.obj (MAIN_WIRELESS)
  .\voice.obj (VOICE)
  .\UART.obj (UART)
  .\pwm.obj (PWM)
  .\Other.obj (OTHER)
  .\Delay.obj (DELAY)
  .\operation.obj (OPERATION)
  .\communication.obj (COMMUNICATION)
  .\Battery.obj (BATTERY)
  .\AD.obj (AD)
  .\Timer.obj (TIMER)
  D:\PROGRAM FILES (X86)\KEIL\C51\LIB\C51S.LIB (?C_STARTUP)
  D:\PROGRAM FILES (X86)\KEIL\C51\LIB\C51S.LIB (?C?CLDPTR)
  D:\PROGRAM FILES (X86)\KEIL\C51\LIB\C51S.LIB (?C?LMUL)
  D:\PROGRAM FILES (X86)\KEIL\C51\LIB\C51S.LIB (?C?ULDIV)
  D:\PROGRAM FILES (X86)\KEIL\C51\LIB\C51S.LIB (?C?LIMUL)
  D:\PROGRAM FILES (X86)\KEIL\C51\LIB\C51S.LIB (?C_INIT)


LINK MAP OF MODULE:  Product_Test_Wireless (MAIN_WIRELESS)


            TYPE    BASE      LENGTH    RELOCATION   SEGMENT NAME
            -----------------------------------------------------

            * * * * * * *   D A T A   M E M O R Y   * * * * * * *
            REG     0000H     0008H     ABSOLUTE     "REG BANK 0"
            DATA    0008H     000FH     UNIT         _DATA_GROUP_
            DATA    0017H     0007H     UNIT         ?DT?COMMUNICATION
            DATA    001EH     0002H     UNIT         ?DT?PWM
            BIT     0020H.0   0002H.3   UNIT         ?BI?MAIN_WIRELESS
            BIT     0022H.3   0000H.1   UNIT         ?BI?OPERATION
                    0022H.4   0000H.4                *** GAP ***
            DATA    0023H     0030H     UNIT         ?DT?MAIN_WIRELESS
            DATA    0053H     0004H     UNIT         ?DT?_INITT0?TIMER
            DATA    0057H     0004H     UNIT         ?DT?TIMER
            DATA    005BH     0003H     UNIT         ?DT?_SENDNBYTE?UART
            DATA    005EH     0003H     UNIT         ?DT?INITSIGNAL2?COMMUNICATION
            DATA    0061H     0003H     UNIT         ?DT?INITSIGNAL3?COMMUNICATION
            DATA    0064H     0002H     UNIT         ?DT?COMMODE_1_DATA?COMMUNICATION
            DATA    0066H     0002H     UNIT         ?DT?COMMODE_1_DATA_F2?COMMUNICATION
            DATA    0068H     0002H     UNIT         ?DT?COMMODE_2_DATA?COMMUNICATION
            DATA    006AH     0002H     UNIT         ?DT?COMMODE_4_DATA?COMMUNICATION
            DATA    006CH     0002H     UNIT         ?DT?COMMODE_5_DATA?COMMUNICATION
            DATA    006EH     0002H     UNIT         ?DT?COMMODE_6_DATA?COMMUNICATION
            DATA    0070H     0002H     UNIT         ?DT?SEND_CODE_TO_LOCK_FOR_UNLOCK?COMMUNICATION
            DATA    0072H     0001H     UNIT         ?DT?VOICE
            IDATA   0073H     0001H     UNIT         ?STACK

BL51 BANKED LINKER/LOCATER V6.22                                                      07/22/2014  14:58:07  PAGE 2


            * * * * * * *   C O D E   M E M O R Y   * * * * * * *
            CODE    0000H     0003H     ABSOLUTE     
            CODE    0003H     0008H     UNIT         ?PR?_SENDDATA?UART
            CODE    000BH     0003H     ABSOLUTE     
            CODE    000EH     000DH     UNIT         ?PR?BATTERY_HIGH_ALARM_SPEECH?VOICE
            CODE    001BH     0003H     ABSOLUTE     
            CODE    001EH     0163H     UNIT         ?C?LIB_CODE
            CODE    0181H     0101H     UNIT         ?PR?TIMER0?MAIN_WIRELESS
            CODE    0282H     00B4H     UNIT         ?PR?_VERIFYBATTERY?BATTERY
            CODE    0336H     00A7H     UNIT         ?C_INITSEG
            CODE    03DDH     008CH     UNIT         ?C_C51STARTUP
            CODE    0469H     0074H     UNIT         ?PR?_GETADCRESULT?AD
            CODE    04DDH     0072H     UNIT         ?PR?_INITTIMER?TIMER
            CODE    054FH     005FH     UNIT         ?PR?COMMODE_2_DATA?COMMUNICATION
            CODE    05AEH     005FH     UNIT         ?PR?COMMODE_3_DATA?COMMUNICATION
            CODE    060DH     005FH     UNIT         ?PR?COMMODE_4_DATA?COMMUNICATION
            CODE    066CH     005FH     UNIT         ?PR?COMMODE_5_DATA?COMMUNICATION
            CODE    06CBH     005FH     UNIT         ?PR?COMMODE_6_DATA?COMMUNICATION
            CODE    072AH     005CH     UNIT         ?PR?RECEIVE_BYTE?COMMUNICATION
            CODE    0786H     0057H     UNIT         ?PR?TIMERT1?MAIN_WIRELESS
            CODE    07DDH     0054H     UNIT         ?PR?COMMODE_1_DATA?COMMUNICATION
            CODE    0831H     0050H     UNIT         ?PR?SEND_CODE_TO_LOCK?COMMUNICATION
            CODE    0881H     0050H     UNIT         ?PR?SEND_CODE_TO_LOCK_FOR_UNLOCK?COMMUNICATION
            CODE    08D1H     004DH     UNIT         ?PR?KEY_ROTATE_ON_SPEECH?VOICE
            CODE    091EH     004DH     UNIT         ?PR?INITSIGNAL2?COMMUNICATION
            CODE    096BH     004CH     UNIT         ?PR?COMMODE_1_DATA_F2?COMMUNICATION
            CODE    09B7H     004AH     UNIT         ?PR?_PWM_CHANNEL?PWM
            CODE    0A01H     0042H     UNIT         ?PR?INITSIGNAL?COMMUNICATION
            CODE    0A43H     0042H     UNIT         ?PR?INITSIGNAL3?COMMUNICATION
            CODE    0A85H     0039H     UNIT         ?PR?_SC_SPEECH?VOICE
            CODE    0ABEH     0037H     UNIT         ?PR?RECEIVE_WORD?COMMUNICATION
            CODE    0AF5H     0034H     UNIT         ?PR?DISABLE_SENSOR?OTHER
            CODE    0B29H     002CH     UNIT         ?PR?MAGNET_DELAY_CW?DELAY
            CODE    0B55H     002CH     UNIT         ?PR?MAGNET_DELAY_ACW?DELAY
            CODE    0B81H     002AH     UNIT         ?PR?_INITT0?TIMER
            CODE    0BABH     0025H     UNIT         ?PR?MAIN?MAIN_WIRELESS
            CODE    0BD0H     0024H     UNIT         ?PR?_SENDNBYTE?UART
            CODE    0BF4H     0020H     UNIT         ?PR?_DELAY_MS?DELAY
            CODE    0C14H     001DH     UNIT         ?PR?SLAVE_AWAY_SPEECH?VOICE
            CODE    0C31H     001BH     UNIT         ?PR?_DELAY?DELAY
            CODE    0C4CH     0019H     UNIT         ?PR?NOVOICE?VOICE
            CODE    0C65H     0018H     UNIT         ?PR?_DELAY3?DELAY
            CODE    0C7DH     0018H     UNIT         ?PR?_DELAY4?DELAY
            CODE    0C95H     0018H     UNIT         ?PR?_DELAY_US?DELAY
            CODE    0CADH     0017H     UNIT         ?PR?HOST_TOUCH_SPEECH?VOICE
            CODE    0CC4H     0017H     UNIT         ?PR?HOST_2NDTOUCH_SPEECH?VOICE
            CODE    0CDBH     0017H     UNIT         ?PR?STOLEN_ALARM_SPEECH2?VOICE
            CODE    0CF2H     0016H     UNIT         ?PR?SLAVE_NEARBY_OPERATION?OPERATION
            CODE    0D08H     0015H     UNIT         ?PR?MAGNET_DELAY_FOR_UNLOCK?DELAY
            CODE    0D1DH     0012H     UNIT         ?PR?INITUART?UART
            CODE    0D2FH     0012H     UNIT         ?PR?INIT_PWM?PWM
            CODE    0D41H     0011H     UNIT         ?PR?MOTORBAT_LOW_SPEECH?VOICE
            CODE    0D52H     0011H     UNIT         ?PR?STOLEN_ALARM_SPEECH1?VOICE
            CODE    0D63H     0011H     UNIT         ?PR?SLAVE_NEARBY_SPEECH?VOICE
            CODE    0D74H     0011H     UNIT         ?PR?BATTERY_STOLEN_SPEECH?VOICE
            CODE    0D85H     0011H     UNIT         ?PR?CUTTING_WIRE_VOICE?VOICE
            CODE    0D96H     0011H     UNIT         ?PR?PRODUCT_TEST_VOICE?VOICE
BL51 BANKED LINKER/LOCATER V6.22                                                      07/22/2014  14:58:07  PAGE 3


            CODE    0DA7H     0011H     UNIT         ?PR?BATTERY_LOW_ALARM_SPEECH?VOICE
            CODE    0DB8H     0011H     UNIT         ?PR?ALARM_STOLEN_SPEECH?VOICE
            CODE    0DC9H     0011H     UNIT         ?PR?ALARM_RAISED_SPEECH?VOICE
            CODE    0DDAH     0011H     UNIT         ?PR?ALARM_FELL_SPEECH?VOICE
            CODE    0DEBH     0011H     UNIT         ?PR?HOST_BATTERY_HIGH_ALARM_SPEECH?VOICE
            CODE    0DFCH     0011H     UNIT         ?PR?BATTERY_STOLEN_SPEECH_F3?VOICE
            CODE    0E0DH     0011H     UNIT         ?PR?WIRE_BROKEN_SPEECH?VOICE
            CODE    0E1EH     0011H     UNIT         ?PR?MAGNET_CW?OTHER
            CODE    0E2FH     0011H     UNIT         ?PR?MAGNET_CW_FOR_UNLOCK?OTHER
            CODE    0E40H     0011H     UNIT         ?PR?SLAVE_AWAY_OPERATION?OPERATION
            CODE    0E51H     000EH     UNIT         ?PR?MAGNET_ACW?OTHER
            CODE    0E5FH     000EH     UNIT         ?PR?ENABLE_SENSOR?OTHER
            CODE    0E6DH     000CH     UNIT         ?PR?MOTO_VIBRATION?OTHER
            CODE    0E79H     0008H     UNIT         ?PR?MYPWM?PWM
            CODE    0E81H     0004H     UNIT         ?PR?SEOS_GO_TO_SLEEP?TIMER



OVERLAY MAP OF MODULE:   Product_Test_Wireless (MAIN_WIRELESS)


SEGMENT                                            DATA_GROUP 
  +--> CALLED SEGMENT                            START    LENGTH
----------------------------------------------------------------
?PR?TIMER0?MAIN_WIRELESS                         -----    -----
  +--> ?PR?MAGNET_CW?OTHER
  +--> ?PR?COMMODE_3_DATA?COMMUNICATION
  +--> ?PR?PRODUCT_TEST_VOICE?VOICE
  +--> ?PR?_GETADCRESULT?AD
  +--> ?PR?_VERIFYBATTERY?BATTERY
  +--> ?PR?MAGNET_ACW?OTHER
  +--> ?PR?_DELAY?DELAY
  +--> ?PR?SLAVE_NEARBY_SPEECH?VOICE
  +--> ?PR?SLAVE_AWAY_SPEECH?VOICE
  +--> ?PR?HOST_TOUCH_SPEECH?VOICE
  +--> ?PR?BATTERY_STOLEN_SPEECH?VOICE
  +--> ?PR?STOLEN_ALARM_SPEECH2?VOICE

?PR?MAGNET_CW?OTHER                              -----    -----
  +--> ?PR?SEND_CODE_TO_LOCK?COMMUNICATION
  +--> ?PR?MAGNET_DELAY_CW?DELAY

?PR?SEND_CODE_TO_LOCK?COMMUNICATION              0008H    0002H
  +--> ?PR?_DELAY4?DELAY

?PR?COMMODE_3_DATA?COMMUNICATION                 0008H    0002H
  +--> ?PR?INITSIGNAL?COMMUNICATION
  +--> ?PR?_DELAY4?DELAY

?PR?INITSIGNAL?COMMUNICATION                     000AH    0003H
  +--> ?PR?_DELAY3?DELAY

?PR?PRODUCT_TEST_VOICE?VOICE                     -----    -----
  +--> ?PR?_SC_SPEECH?VOICE
  +--> ?PR?_DELAY?DELAY

?PR?_SC_SPEECH?VOICE                             000AH    0002H
BL51 BANKED LINKER/LOCATER V6.22                                                      07/22/2014  14:58:07  PAGE 4


  +--> ?PR?_DELAY_MS?DELAY
  +--> ?PR?_DELAY_US?DELAY

?PR?_VERIFYBATTERY?BATTERY                       0008H    0002H
  +--> ?PR?_SC_SPEECH?VOICE
  +--> ?PR?_DELAY?DELAY
  +--> ?PR?MOTORBAT_LOW_SPEECH?VOICE

?PR?MOTORBAT_LOW_SPEECH?VOICE                    -----    -----
  +--> ?PR?_SC_SPEECH?VOICE
  +--> ?PR?_DELAY?DELAY

?PR?MAGNET_ACW?OTHER                             -----    -----
  +--> ?PR?MAGNET_DELAY_ACW?DELAY

?PR?SLAVE_NEARBY_SPEECH?VOICE                    -----    -----
  +--> ?PR?_SC_SPEECH?VOICE
  +--> ?PR?_DELAY?DELAY

?PR?SLAVE_AWAY_SPEECH?VOICE                      -----    -----
  +--> ?PR?_SC_SPEECH?VOICE
  +--> ?PR?_DELAY?DELAY

?PR?HOST_TOUCH_SPEECH?VOICE                      -----    -----
  +--> ?PR?_SC_SPEECH?VOICE
  +--> ?PR?_DELAY?DELAY

?PR?BATTERY_STOLEN_SPEECH?VOICE                  -----    -----
  +--> ?PR?_SC_SPEECH?VOICE
  +--> ?PR?_DELAY?DELAY

?PR?STOLEN_ALARM_SPEECH2?VOICE                   -----    -----
  +--> ?PR?_SC_SPEECH?VOICE
  +--> ?PR?_DELAY?DELAY

*** NEW ROOT ***************************************************

?PR?TIMERT1?MAIN_WIRELESS                        -----    -----
  +--> ?PR?RECEIVE_BYTE?COMMUNICATION
  +--> ?PR?RECEIVE_WORD?COMMUNICATION
  +--> ?PR?DISABLE_SENSOR?OTHER

*** NEW ROOT ***************************************************

?C_C51STARTUP                                    -----    -----
  +--> ?PR?MAIN?MAIN_WIRELESS
  +--> ?C_INITSEG

?PR?MAIN?MAIN_WIRELESS                           -----    -----
  +--> ?PR?NOVOICE?VOICE
  +--> ?PR?_INITTIMER?TIMER
  +--> ?PR?SEOS_GO_TO_SLEEP?TIMER

?PR?NOVOICE?VOICE                                -----    -----
  +--> ?PR?_DELAY_US?DELAY

?PR?_INITTIMER?TIMER                             000DH    000AH
BL51 BANKED LINKER/LOCATER V6.22                                                      07/22/2014  14:58:07  PAGE 5





SYMBOL TABLE OF MODULE:  Product_Test_Wireless (MAIN_WIRELESS)

  VALUE           TYPE          NAME
  ----------------------------------

  -------         MODULE        MAIN_WIRELESS
  C:0000H         SYMBOL        _ICE_DUMMY_
  B:0020H.0       PUBLIC        receive_wire_flag
  B:0020H.1       PUBLIC        raised_fell_flag
  D:0080H         PUBLIC        P0
  D:0090H         PUBLIC        P1
  B:0080H.3       PUBLIC        fell_sensor_detect
  D:00A0H         PUBLIC        P2
  D:00B0H         PUBLIC        P3
  D:0023H         PUBLIC        sensor_trigger_count
  B:0020H.2       PUBLIC        horizontal_vibration
  D:0024H         PUBLIC        battery_stolen_count
  B:0020H.3       PUBLIC        raised_fell_once_flag
  B:0020H.4       PUBLIC        stolen_alarm_flag
  B:0090H.4       PUBLIC        voice_EN
  D:0025H         PUBLIC        IDkey5
  D:00A8H         PUBLIC        IE
  B:0020H.5       PUBLIC        sensor_EN
  B:0020H.6       PUBLIC        receive_data_finished_flag
  D:0026H         PUBLIC        horizontal_vibration_count
  B:0020H.7       PUBLIC        sensor_3rdalarm_flag
  D:00B8H         PUBLIC        IP
  B:0021H.0       PUBLIC        wire_broken_flag
  B:0080H.1       PUBLIC        wire_broken
  B:0021H.1       PUBLIC        fell_flag
  D:0028H         PUBLIC        one_receive_byte
  D:0029H         PUBLIC        fell_alarm_count
  C:0BABH         PUBLIC        main
  D:002AH         PUBLIC        received_data_buffer
  D:0031H         PUBLIC        data_count
  D:0032H         PUBLIC        sensor_2ndstage_count
  C:0786H         PUBLIC        timerT1
  D:0033H         PUBLIC        wire_broken_count
  D:00D8H         PUBLIC        WDCON0
  D:0034H         PUBLIC        ADC_check_result
  D:0036H         PUBLIC        sensor_2ndstage_time
  D:0038H         PUBLIC        sensor_3rdstage_count
  D:0039H         PUBLIC        one_receive_byte_count
  B:0090H.0       PUBLIC        P10
  D:003AH         PUBLIC        sensor_3rdstage_time
  D:0098H         PUBLIC        SCON
  D:0088H         PUBLIC        TCON
  D:003CH         PUBLIC        sensor_1ststage_count
  B:00A0H.5       PUBLIC        key_rotate
  B:0021H.2       PUBLIC        test_flag
  D:003DH         PUBLIC        raise_wire_time
  D:008CH         PUBLIC        TH0
  D:008DH         PUBLIC        TH1
  B:0090H.3       PUBLIC        receiver_EN
BL51 BANKED LINKER/LOCATER V6.22                                                      07/22/2014  14:58:07  PAGE 6


  B:0021H.3       PUBLIC        host_stolen_alarm1_EN
  B:0080H.7       PUBLIC        horizontal_sensor
  D:008AH         PUBLIC        TL0
  B:0021H.4       PUBLIC        vibration_flag
  D:003EH         PUBLIC        fell_wire_time
  B:0021H.5       PUBLIC        host_stolen_alarm2_EN
  D:008BH         PUBLIC        TL1
  D:00E8H         PUBLIC        EIE
  C:0181H         PUBLIC        timer0
  B:0021H.6       PUBLIC        IDkey_flag
  B:0080H.2       PUBLIC        wheeled_rotate
  B:00A0H.2       PUBLIC        MagentControl_1
  B:0080H.4       PUBLIC        raised_sensor_detect
  B:00A0H.3       PUBLIC        MagentControl_2
  D:00F8H         PUBLIC        ADCCON0
  D:00C0H         PUBLIC        I2CON
  D:003FH         PUBLIC        key_rotated_on_flag
  B:0021H.7       PUBLIC        wheeled_flag
  D:0040H         PUBLIC        vibration_count
  D:0042H         PUBLIC        timer0_count
  D:0044H         PUBLIC        sensor_3rdstage_effcount
  D:0045H         PUBLIC        IDkey_count
  D:0046H         PUBLIC        nearby_away_interval
  D:00C8H         PUBLIC        T2CON
  D:0047H         PUBLIC        enable_sensor_delay_count
  D:0048H         PUBLIC        host_stolen_alarm1_count
  D:0049H         PUBLIC        host_stolen_alarm2_count
  D:004AH         PUBLIC        sensor_3rdstage_interval
  B:0022H.0       PUBLIC        battery_stolen_EN
  B:0022H.1       PUBLIC        position_sensor_EN
  D:004CH         PUBLIC        wheeled_count
  D:004EH         PUBLIC        raised_fell_number
  D:0050H         PUBLIC        receive_HV_count
  D:0051H         PUBLIC        receive_LV_count
  B:0022H.2       PUBLIC        raised_flag
  D:0052H         PUBLIC        raised_alarm_count
  D:00D0H         PUBLIC        PSW
  B:0080H.0       PUBLIC        sensor_detect
  -------         PROC          MAIN
  C:0BABH         LINE#         84
  C:0BABH         LINE#         85
  C:0BABH         LINE#         97
  C:0BADH         LINE#         98
  C:0BB0H         LINE#         100
  C:0BB9H         LINE#         102
  C:0BBBH         LINE#         105
  C:0BBDH         LINE#         106
  C:0BBFH         LINE#         107
  C:0BC1H         LINE#         110
  C:0BC3H         LINE#         112
  C:0BC9H         LINE#         113
  C:0BCBH         LINE#         115
  C:0BCBH         LINE#         116
  C:0BCBH         LINE#         117
  C:0BCEH         LINE#         118
  -------         ENDPROC       MAIN
  -------         PROC          TIMER0
BL51 BANKED LINKER/LOCATER V6.22                                                      07/22/2014  14:58:07  PAGE 7


  C:0181H         LINE#         126
  C:019EH         LINE#         129
  C:01A1H         LINE#         130
  C:01A4H         LINE#         133
  C:01B5H         LINE#         134
  C:01B5H         LINE#         136
  C:01BBH         LINE#         138
  C:01BEH         LINE#         139
  C:01BEH         LINE#         141
  C:01C1H         LINE#         144
  C:01C4H         LINE#         147
  C:01C7H         LINE#         150
  C:01D0H         LINE#         153
  C:01D3H         LINE#         156
  C:01DAH         LINE#         159
  C:01DDH         LINE#         162
  C:01E0H         LINE#         163
  C:01E0H         LINE#         164
  C:01E0H         LINE#         168
  C:01EAH         LINE#         169
  C:01EAH         LINE#         170
  C:01F0H         LINE#         172
  C:01F3H         LINE#         173
  C:01F3H         LINE#         175
  C:01F6H         LINE#         177
  C:01F9H         LINE#         179
  C:01FCH         LINE#         180
  C:01FEH         LINE#         181
  C:01FEH         LINE#         182
  C:01FEH         LINE#         185
  C:0206H         LINE#         186
  C:0206H         LINE#         187
  C:020CH         LINE#         188
  C:020CH         LINE#         189
  C:0213H         LINE#         190
  C:0216H         LINE#         191
  C:0216H         LINE#         193
  C:0219H         LINE#         195
  C:021CH         LINE#         196
  C:021CH         LINE#         197
  C:021CH         LINE#         198
  C:021CH         LINE#         202
  C:021FH         LINE#         203
  C:021FH         LINE#         204
  C:0221H         LINE#         205
  C:0227H         LINE#         206
  C:0227H         LINE#         207
  C:022AH         LINE#         208
  C:022AH         LINE#         209
  C:023BH         LINE#         210
  C:023BH         LINE#         211
  C:023DH         LINE#         212
  C:0243H         LINE#         213
  C:0243H         LINE#         214
  C:0243H         LINE#         217
  C:0249H         LINE#         218
  C:0249H         LINE#         219
BL51 BANKED LINKER/LOCATER V6.22                                                      07/22/2014  14:58:07  PAGE 8


  C:0252H         LINE#         220
  C:0252H         LINE#         221
  C:0255H         LINE#         223
  C:0258H         LINE#         224
  C:0258H         LINE#         225
  C:0258H         LINE#         228
  C:025BH         LINE#         229
  C:025BH         LINE#         230
  C:025EH         LINE#         231
  C:025EH         LINE#         234
  C:0264H         LINE#         235
  C:0264H         LINE#         236
  C:0267H         LINE#         237
  C:0267H         LINE#         244
  -------         ENDPROC       TIMER0
  -------         PROC          TIMERT1
  C:0786H         LINE#         300
  C:07A3H         LINE#         303
  C:07A6H         LINE#         304
  C:07A9H         LINE#         307
  C:07ACH         LINE#         310
  C:07AFH         LINE#         313
  C:07B2H         LINE#         314
  C:07B2H         LINE#         315
  C:07B4H         LINE#         317
  C:07BAH         LINE#         318
  C:07BAH         LINE#         319
  C:07BAH         LINE#         320
  C:07BAH         LINE#         321
  C:07BCH         LINE#         322
  C:07BFH         LINE#         323
  C:07C2H         LINE#         324
  C:07C2H         LINE#         325
  C:07C2H         LINE#         326
  C:07C2H         LINE#         327
  C:07C2H         LINE#         328
  -------         ENDPROC       TIMERT1
  -------         ENDMOD        MAIN_WIRELESS

  -------         MODULE        VOICE
  C:0000H         SYMBOL        _ICE_DUMMY_
  D:0080H         PUBLIC        P0
  D:0090H         PUBLIC        P1
  D:00A0H         PUBLIC        P2
  D:00B0H         PUBLIC        P3
  B:0090H.4       PUBLIC        voice_EN
  D:00A8H         PUBLIC        IE
  C:0C14H         PUBLIC        slave_away_speech
  B:00A0H.1       PUBLIC        SC_DATA
  C:0D52H         PUBLIC        stolen_alarm_speech1
  C:0CDBH         PUBLIC        stolen_alarm_speech2
  D:00B8H         PUBLIC        IP
  C:0D41H         PUBLIC        motorBAT_low_speech
  C:0CADH         PUBLIC        host_touch_speech
  C:0DC9H         PUBLIC        Alarm_raised_speech
  C:0CC4H         PUBLIC        host_2ndtouch_speech
  D:00D8H         PUBLIC        WDCON0
BL51 BANKED LINKER/LOCATER V6.22                                                      07/22/2014  14:58:07  PAGE 9


  C:0DFCH         PUBLIC        battery_stolen_speech_F3
  C:000EH         PUBLIC        Battery_high_alarm_speech
  D:0098H         PUBLIC        SCON
  B:0090H.4       PUBLIC        P14
  D:0088H         PUBLIC        TCON
  C:0D85H         PUBLIC        Cutting_Wire_Voice
  C:0D96H         PUBLIC        Product_Test_Voice
  C:0DB8H         PUBLIC        Alarm_stolen_speech
  D:0072H         PUBLIC        key_rotate_on_speech_number
  C:0DEBH         PUBLIC        Host_battery_high_alarm_speech
  C:0DDAH         PUBLIC        Alarm_fell_speech
  C:0A89H         PUBLIC        _SC_Speech
  D:00E8H         PUBLIC        EIE
  C:0D74H         PUBLIC        battery_stolen_speech
  C:0C4CH         PUBLIC        noVoice
  C:08D1H         PUBLIC        key_rotate_on_speech
  D:00F8H         PUBLIC        ADCCON0
  D:00C0H         PUBLIC        I2CON
  C:0D63H         PUBLIC        slave_nearby_speech
  C:0DA7H         PUBLIC        Battery_low_alarm_speech
  D:00C8H         PUBLIC        T2CON
  B:00A0H.0       PUBLIC        SC_RST
  D:00D0H         PUBLIC        PSW
  C:0E0DH         PUBLIC        wire_broken_speech
  C:0A85H         SYMBOL        L?0029
  -------         PROC          L?0028
  -------         ENDPROC       L?0028
  C:0A85H         SYMBOL        L?0029
  -------         PROC          _SC_SPEECH
  D:000AH         SYMBOL        cnt
  -------         DO            
  D:000BH         SYMBOL        i
  -------         ENDDO         
  C:0A89H         LINE#         23
  C:0A8BH         LINE#         24
  C:0A8BH         LINE#         26
  C:0A8DH         LINE#         27
  C:0A94H         LINE#         28
  C:0A96H         LINE#         29
  C:0A9DH         LINE#         30
  C:0AA7H         LINE#         31
  C:0AA7H         LINE#         32
  C:0AA9H         LINE#         33
  C:0AB0H         LINE#         34
  C:0AB2H         LINE#         35
  C:0AB9H         LINE#         36
  C:0ABDH         LINE#         37
  -------         ENDPROC       _SC_SPEECH
  -------         PROC          NOVOICE
  C:0C4CH         LINE#         46
  C:0C4CH         LINE#         47
  C:0C4CH         LINE#         48
  C:0C4EH         LINE#         49
  C:0C50H         LINE#         50
  C:0C52H         LINE#         51
  C:0C59H         LINE#         52
  C:0C5BH         LINE#         53
BL51 BANKED LINKER/LOCATER V6.22                                                      07/22/2014  14:58:07  PAGE 10


  C:0C62H         LINE#         54
  C:0C64H         LINE#         55
  -------         ENDPROC       NOVOICE
  -------         PROC          KEY_ROTATE_ON_SPEECH
  C:08D1H         LINE#         61
  C:08D1H         LINE#         62
  C:08D1H         LINE#         63
  C:08DAH         LINE#         64
  C:08DAH         LINE#         65
  C:08DAH         LINE#         66
  C:08DAH         LINE#         67
  C:08DAH         LINE#         68
  C:08DDH         LINE#         69
  C:08E4H         LINE#         70
  C:08E9H         LINE#         71
  C:08F0H         LINE#         72
  C:08F5H         LINE#         73
  C:08FCH         LINE#         74
  C:08FEH         LINE#         75
  C:0901H         LINE#         76
  C:0901H         LINE#         77
  C:0902H         LINE#         79
  C:0902H         LINE#         80
  C:0902H         LINE#         81
  C:0902H         LINE#         82
  C:0905H         LINE#         83
  C:090CH         LINE#         84
  C:0911H         LINE#         85
  C:0918H         LINE#         86
  C:091AH         LINE#         87
  C:091DH         LINE#         88
  C:091DH         LINE#         89
  C:091DH         LINE#         90
  C:091DH         LINE#         91
  -------         ENDPROC       KEY_ROTATE_ON_SPEECH
  -------         PROC          MOTORBAT_LOW_SPEECH
  C:0D41H         LINE#         109
  C:0D41H         LINE#         110
  C:0D41H         LINE#         111
  C:0D43H         LINE#         112
  C:0D48H         LINE#         113
  C:0D4FH         LINE#         114
  C:0D51H         LINE#         115
  -------         ENDPROC       MOTORBAT_LOW_SPEECH
  -------         PROC          HOST_TOUCH_SPEECH
  C:0CADH         LINE#         121
  C:0CADH         LINE#         122
  C:0CADH         LINE#         123
  C:0CAFH         LINE#         124
  C:0CB4H         LINE#         125
  C:0CBBH         LINE#         126
  C:0CBDH         LINE#         127
  -------         ENDPROC       HOST_TOUCH_SPEECH
  -------         PROC          HOST_2NDTOUCH_SPEECH
  C:0CC4H         LINE#         134
  C:0CC4H         LINE#         135
  C:0CC4H         LINE#         136
BL51 BANKED LINKER/LOCATER V6.22                                                      07/22/2014  14:58:07  PAGE 11


  C:0CC6H         LINE#         137
  C:0CCBH         LINE#         138
  C:0CD2H         LINE#         139
  C:0CD4H         LINE#         140
  -------         ENDPROC       HOST_2NDTOUCH_SPEECH
  -------         PROC          STOLEN_ALARM_SPEECH1
  C:0D52H         LINE#         147
  C:0D52H         LINE#         148
  C:0D52H         LINE#         149
  C:0D54H         LINE#         150
  C:0D59H         LINE#         151
  C:0D60H         LINE#         152
  C:0D62H         LINE#         153
  -------         ENDPROC       STOLEN_ALARM_SPEECH1
  -------         PROC          STOLEN_ALARM_SPEECH2
  C:0CDBH         LINE#         159
  C:0CDBH         LINE#         160
  C:0CDBH         LINE#         161
  C:0CDDH         LINE#         162
  C:0CE2H         LINE#         163
  C:0CE9H         LINE#         164
  C:0CEBH         LINE#         165
  -------         ENDPROC       STOLEN_ALARM_SPEECH2
  -------         PROC          SLAVE_NEARBY_SPEECH
  C:0D63H         LINE#         173
  C:0D63H         LINE#         174
  C:0D63H         LINE#         175
  C:0D65H         LINE#         176
  C:0D6AH         LINE#         177
  C:0D71H         LINE#         178
  C:0D73H         LINE#         179
  -------         ENDPROC       SLAVE_NEARBY_SPEECH
  -------         PROC          SLAVE_AWAY_SPEECH
  C:0C14H         LINE#         186
  C:0C14H         LINE#         187
  C:0C14H         LINE#         188
  C:0C16H         LINE#         190
  C:0C1BH         LINE#         191
  C:0C22H         LINE#         193
  C:0C27H         LINE#         194
  C:0C2EH         LINE#         195
  C:0C30H         LINE#         196
  -------         ENDPROC       SLAVE_AWAY_SPEECH
  -------         PROC          BATTERY_STOLEN_SPEECH
  C:0D74H         LINE#         202
  C:0D74H         LINE#         203
  C:0D74H         LINE#         204
  C:0D76H         LINE#         205
  C:0D7BH         LINE#         206
  C:0D82H         LINE#         207
  C:0D84H         LINE#         208
  -------         ENDPROC       BATTERY_STOLEN_SPEECH
  -------         PROC          CUTTING_WIRE_VOICE
  C:0D85H         LINE#         214
  C:0D85H         LINE#         215
  C:0D85H         LINE#         216
  C:0D87H         LINE#         217
BL51 BANKED LINKER/LOCATER V6.22                                                      07/22/2014  14:58:07  PAGE 12


  C:0D8CH         LINE#         218
  C:0D93H         LINE#         219
  C:0D95H         LINE#         220
  -------         ENDPROC       CUTTING_WIRE_VOICE
  -------         PROC          PRODUCT_TEST_VOICE
  C:0D96H         LINE#         226
  C:0D96H         LINE#         227
  C:0D96H         LINE#         228
  C:0D98H         LINE#         229
  C:0D9DH         LINE#         230
  C:0DA4H         LINE#         231
  C:0DA6H         LINE#         232
  -------         ENDPROC       PRODUCT_TEST_VOICE
  -------         PROC          BATTERY_LOW_ALARM_SPEECH
  C:0DA7H         LINE#         238
  C:0DA7H         LINE#         239
  C:0DA7H         LINE#         240
  C:0DA9H         LINE#         241
  C:0DAEH         LINE#         242
  C:0DB5H         LINE#         243
  C:0DB7H         LINE#         244
  -------         ENDPROC       BATTERY_LOW_ALARM_SPEECH
  -------         PROC          BATTERY_HIGH_ALARM_SPEECH
  C:000EH         LINE#         250
  C:000EH         LINE#         251
  C:000EH         LINE#         252
  C:000EH         LINE#         253
  C:0011H         LINE#         254
  C:0018H         LINE#         255
  C:001AH         LINE#         256
  -------         ENDPROC       BATTERY_HIGH_ALARM_SPEECH
  -------         PROC          ALARM_STOLEN_SPEECH
  C:0DB8H         LINE#         262
  C:0DB8H         LINE#         263
  C:0DB8H         LINE#         264
  C:0DBAH         LINE#         265
  C:0DBFH         LINE#         266
  C:0DC6H         LINE#         267
  C:0DC8H         LINE#         268
  -------         ENDPROC       ALARM_STOLEN_SPEECH
  -------         PROC          ALARM_RAISED_SPEECH
  C:0DC9H         LINE#         274
  C:0DC9H         LINE#         275
  C:0DC9H         LINE#         276
  C:0DCBH         LINE#         277
  C:0DD0H         LINE#         278
  C:0DD7H         LINE#         279
  C:0DD9H         LINE#         280
  -------         ENDPROC       ALARM_RAISED_SPEECH
  -------         PROC          ALARM_FELL_SPEECH
  C:0DDAH         LINE#         286
  C:0DDAH         LINE#         287
  C:0DDAH         LINE#         288
  C:0DDCH         LINE#         289
  C:0DE1H         LINE#         290
  C:0DE8H         LINE#         291
  C:0DEAH         LINE#         292
BL51 BANKED LINKER/LOCATER V6.22                                                      07/22/2014  14:58:07  PAGE 13


  -------         ENDPROC       ALARM_FELL_SPEECH
  -------         PROC          HOST_BATTERY_HIGH_ALARM_SPEECH
  C:0DEBH         LINE#         298
  C:0DEBH         LINE#         299
  C:0DEBH         LINE#         300
  C:0DEDH         LINE#         301
  C:0DF2H         LINE#         302
  C:0DF9H         LINE#         303
  C:0DFBH         LINE#         304
  -------         ENDPROC       HOST_BATTERY_HIGH_ALARM_SPEECH
  -------         PROC          BATTERY_STOLEN_SPEECH_F3
  C:0DFCH         LINE#         310
  C:0DFCH         LINE#         311
  C:0DFCH         LINE#         312
  C:0DFEH         LINE#         313
  C:0E03H         LINE#         314
  C:0E0AH         LINE#         315
  C:0E0CH         LINE#         316
  -------         ENDPROC       BATTERY_STOLEN_SPEECH_F3
  -------         PROC          WIRE_BROKEN_SPEECH
  C:0E0DH         LINE#         322
  C:0E0DH         LINE#         323
  C:0E0DH         LINE#         324
  C:0E0FH         LINE#         325
  C:0E14H         LINE#         326
  C:0E1BH         LINE#         327
  C:0E1DH         LINE#         328
  -------         ENDPROC       WIRE_BROKEN_SPEECH
  -------         ENDMOD        VOICE

  -------         MODULE        UART
  C:0000H         SYMBOL        _ICE_DUMMY_
  D:0080H         PUBLIC        P0
  D:0090H         PUBLIC        P1
  D:00A0H         PUBLIC        P2
  D:00B0H         PUBLIC        P3
  C:0003H         PUBLIC        _SendData
  D:00A8H         PUBLIC        IE
  D:00B8H         PUBLIC        IP
  B:0098H.1       PUBLIC        TI
  D:00D8H         PUBLIC        WDCON0
  D:0099H         PUBLIC        SBUF
  D:0098H         PUBLIC        SCON
  D:0089H         PUBLIC        TMOD
  D:0088H         PUBLIC        TCON
  D:008DH         PUBLIC        TH1
  D:008BH         PUBLIC        TL1
  D:00E8H         PUBLIC        EIE
  C:0D1DH         PUBLIC        InitUART
  B:0088H.6       PUBLIC        TR1
  D:00F8H         PUBLIC        ADCCON0
  D:00C0H         PUBLIC        I2CON
  D:00C8H         PUBLIC        T2CON
  C:0BD0H         PUBLIC        _SendNByte
  D:00A2H         PUBLIC        AUXR1
  D:00D0H         PUBLIC        PSW
  -------         PROC          INITUART
BL51 BANKED LINKER/LOCATER V6.22                                                      07/22/2014  14:58:07  PAGE 14


  C:0D1DH         LINE#         14
  C:0D1DH         LINE#         15
  C:0D1DH         LINE#         16
  C:0D20H         LINE#         17
  C:0D23H         LINE#         18
  C:0D26H         LINE#         19
  C:0D2CH         LINE#         20
  C:0D2EH         LINE#         21
  -------         ENDPROC       INITUART
  -------         PROC          _SENDDATA
  D:0007H         SYMBOL        dat
  C:0003H         LINE#         30
  C:0003H         LINE#         31
  C:0003H         LINE#         32
  C:0005H         LINE#         33
  C:000AH         LINE#         34
  -------         ENDPROC       _SENDDATA
  -------         PROC          _SENDNBYTE
  D:005BH         SYMBOL        buf
  D:0005H         SYMBOL        len
  C:0BD0H         LINE#         43
  C:0BD6H         LINE#         44
  C:0BD6H         LINE#         45
  C:0BDCH         LINE#         46
  C:0BDCH         LINE#         47
  C:0BF1H         LINE#         48
  C:0BF3H         LINE#         49
  -------         ENDPROC       _SENDNBYTE
  -------         ENDMOD        UART

  -------         MODULE        PWM
  C:0000H         SYMBOL        _ICE_DUMMY_
  D:0080H         PUBLIC        P0
  D:0090H         PUBLIC        P1
  D:00A0H         PUBLIC        P2
  D:00B0H         PUBLIC        P3
  D:00DCH         PUBLIC        PWMCON0
  D:00D1H         PUBLIC        PWMPH
  D:00A8H         PUBLIC        IE
  D:00D9H         PUBLIC        PWMPL
  C:09B7H         PUBLIC        _PWM_Channel
  D:00B8H         PUBLIC        IP
  C:0E79H         PUBLIC        myPwm
  D:00D8H         PUBLIC        WDCON0
  D:0098H         PUBLIC        SCON
  D:0088H         PUBLIC        TCON
  D:00E8H         PUBLIC        EIE
  D:00F8H         PUBLIC        ADCCON0
  D:00C0H         PUBLIC        I2CON
  D:001EH         PUBLIC        PWM_shadow
  D:00C8H         PUBLIC        T2CON
  C:0D2FH         PUBLIC        Init_PWM
  D:00D2H         PUBLIC        PWM0H
  D:00D3H         PUBLIC        PWM1H
  D:00D5H         PUBLIC        PWM2H
  D:00D6H         PUBLIC        PWM3H
  D:00DAH         PUBLIC        PWM0L
BL51 BANKED LINKER/LOCATER V6.22                                                      07/22/2014  14:58:07  PAGE 15


  D:00DBH         PUBLIC        PWM1L
  D:00DDH         PUBLIC        PWM2L
  D:00DEH         PUBLIC        PWM3L
  D:00D0H         PUBLIC        PSW
  -------         PROC          INIT_PWM
  C:0D2FH         LINE#         20
  C:0D2FH         LINE#         21
  C:0D2FH         LINE#         23
  C:0D32H         LINE#         25
  C:0D38H         LINE#         27
  C:0D3CH         LINE#         28
  C:0D40H         LINE#         29
  -------         ENDPROC       INIT_PWM
  -------         PROC          _PWM_CHANNEL
  D:0007H         SYMBOL        Channel
  C:09B7H         LINE#         37
  C:09B7H         LINE#         38
  C:09B7H         LINE#         39
  C:09C5H         LINE#         40
  C:09C5H         LINE#         42
  C:09C5H         LINE#         43
  C:09C5H         LINE#         44
  C:09CBH         LINE#         45
  C:09CFH         LINE#         46
  C:09D3H         LINE#         47
  C:09D3H         LINE#         48
  C:09D4H         LINE#         50
  C:09D4H         LINE#         51
  C:09D4H         LINE#         52
  C:09DAH         LINE#         53
  C:09DEH         LINE#         54
  C:09E2H         LINE#         55
  C:09E2H         LINE#         56
  C:09E3H         LINE#         58
  C:09E3H         LINE#         59
  C:09E3H         LINE#         60
  C:09E9H         LINE#         61
  C:09EDH         LINE#         62
  C:09F1H         LINE#         63
  C:09F1H         LINE#         64
  C:09F2H         LINE#         66
  C:09F2H         LINE#         67
  C:09F2H         LINE#         68
  C:09F8H         LINE#         69
  C:09FCH         LINE#         70
  C:0A00H         LINE#         71
  C:0A00H         LINE#         72
  C:0A00H         LINE#         73
  C:0A00H         LINE#         74
  -------         ENDPROC       _PWM_CHANNEL
  -------         PROC          MYPWM
  C:0E79H         LINE#         82
  C:0E79H         LINE#         83
  C:0E79H         LINE#         85
  C:0E7EH         LINE#         87
  -------         ENDPROC       MYPWM
  -------         ENDMOD        PWM
BL51 BANKED LINKER/LOCATER V6.22                                                      07/22/2014  14:58:07  PAGE 16



  -------         MODULE        OTHER
  C:0000H         SYMBOL        _ICE_DUMMY_
  D:0080H         PUBLIC        P0
  D:0090H         PUBLIC        P1
  D:00A0H         PUBLIC        P2
  D:00B0H         PUBLIC        P3
  D:00A8H         PUBLIC        IE
  B:00A0H.4       PUBLIC        Moto_EN
  D:00B8H         PUBLIC        IP
  D:00D8H         PUBLIC        WDCON0
  D:0098H         PUBLIC        SCON
  D:0088H         PUBLIC        TCON
  C:0E6DH         PUBLIC        Moto_Vibration
  C:0E51H         PUBLIC        magnet_ACW
  B:0080H.5       PUBLIC        motor_lock
  D:00E8H         PUBLIC        EIE
  C:0AF5H         PUBLIC        disable_sensor
  B:00A0H.2       PUBLIC        MagentControl_1
  B:00A0H.3       PUBLIC        MagentControl_2
  D:00F8H         PUBLIC        ADCCON0
  D:00C0H         PUBLIC        I2CON
  D:00C8H         PUBLIC        T2CON
  C:0E5FH         PUBLIC        enable_sensor
  C:0E2FH         PUBLIC        magnet_CW_for_Unlock
  C:0E1EH         PUBLIC        magnet_CW
  D:00D0H         PUBLIC        PSW
  -------         PROC          MAGNET_CW
  C:0E1EH         LINE#         44
  C:0E1EH         LINE#         45
  C:0E1EH         LINE#         46
  C:0E21H         LINE#         48
  C:0E23H         LINE#         49
  C:0E25H         LINE#         50
  C:0E28H         LINE#         51
  C:0E2AH         LINE#         52
  C:0E2CH         LINE#         53
  C:0E2EH         LINE#         54
  -------         ENDPROC       MAGNET_CW
  -------         PROC          MAGNET_CW_FOR_UNLOCK
  C:0E2FH         LINE#         60
  C:0E2FH         LINE#         61
  C:0E2FH         LINE#         62
  C:0E32H         LINE#         64
  C:0E34H         LINE#         65
  C:0E36H         LINE#         66
  C:0E39H         LINE#         67
  C:0E3BH         LINE#         68
  C:0E3DH         LINE#         69
  C:0E3FH         LINE#         70
  -------         ENDPROC       MAGNET_CW_FOR_UNLOCK
  -------         PROC          MAGNET_ACW
  C:0E51H         LINE#         76
  C:0E51H         LINE#         77
  C:0E51H         LINE#         78
  C:0E53H         LINE#         79
  C:0E55H         LINE#         80
BL51 BANKED LINKER/LOCATER V6.22                                                      07/22/2014  14:58:07  PAGE 17


  C:0E57H         LINE#         81
  C:0E5AH         LINE#         82
  C:0E5CH         LINE#         83
  C:0E5EH         LINE#         84
  -------         ENDPROC       MAGNET_ACW
  -------         PROC          DISABLE_SENSOR
  C:0AF5H         LINE#         90
  C:0AF5H         LINE#         91
  C:0AF5H         LINE#         93
  C:0AF7H         LINE#         94
  C:0AF9H         LINE#         96
  C:0AFBH         LINE#         97
  C:0AFDH         LINE#         98
  C:0B00H         LINE#         99
  C:0B02H         LINE#         100
  C:0B04H         LINE#         101
  C:0B08H         LINE#         102
  C:0B0CH         LINE#         103
  C:0B10H         LINE#         104
  C:0B12H         LINE#         105
  C:0B14H         LINE#         106
  C:0B16H         LINE#         107
  C:0B18H         LINE#         108
  C:0B1AH         LINE#         109
  C:0B1CH         LINE#         110
  C:0B1EH         LINE#         112
  C:0B20H         LINE#         115
  C:0B22H         LINE#         116
  C:0B24H         LINE#         119
  C:0B26H         LINE#         120
  C:0B28H         LINE#         121
  -------         ENDPROC       DISABLE_SENSOR
  -------         PROC          ENABLE_SENSOR
  C:0E5FH         LINE#         127
  C:0E5FH         LINE#         128
  C:0E5FH         LINE#         130
  C:0E61H         LINE#         131
  C:0E63H         LINE#         133
  C:0E66H         LINE#         134
  C:0E68H         LINE#         135
  C:0E6AH         LINE#         136
  C:0E6CH         LINE#         137
  -------         ENDPROC       ENABLE_SENSOR
  -------         PROC          MOTO_VIBRATION
  C:0E6DH         LINE#         143
  C:0E6DH         LINE#         144
  C:0E6DH         LINE#         145
  C:0E6FH         LINE#         146
  C:0E76H         LINE#         147
  C:0E78H         LINE#         148
  -------         ENDPROC       MOTO_VIBRATION
  -------         ENDMOD        OTHER

  -------         MODULE        DELAY
  C:0000H         SYMBOL        _ICE_DUMMY_
  D:0080H         PUBLIC        P0
  D:0090H         PUBLIC        P1
BL51 BANKED LINKER/LOCATER V6.22                                                      07/22/2014  14:58:07  PAGE 18


  D:00A0H         PUBLIC        P2
  D:00B0H         PUBLIC        P3
  D:00A8H         PUBLIC        IE
  D:00B8H         PUBLIC        IP
  C:0C65H         PUBLIC        _Delay3
  C:0C7DH         PUBLIC        _Delay4
  B:0090H.2       PUBLIC        magnet_overcurrent
  D:00D8H         PUBLIC        WDCON0
  C:0B55H         PUBLIC        magnet_delay_ACW
  D:0098H         PUBLIC        SCON
  D:0088H         PUBLIC        TCON
  C:0BF4H         PUBLIC        _delay_ms
  D:00E8H         PUBLIC        EIE
  D:00F8H         PUBLIC        ADCCON0
  C:0C95H         PUBLIC        _delay_us
  D:00C0H         PUBLIC        I2CON
  D:00C8H         PUBLIC        T2CON
  C:0D08H         PUBLIC        magnet_delay_for_Unlock
  C:0B29H         PUBLIC        magnet_delay_CW
  C:0C31H         PUBLIC        _Delay
  D:00D0H         PUBLIC        PSW
  -------         PROC          _DELAY
  D:0006H         SYMBOL        n
  -------         DO            
  D:0004H         SYMBOL        x
  -------         ENDDO         
  C:0C31H         LINE#         17
  C:0C31H         LINE#         18
  C:0C31H         LINE#         20
  C:0C3BH         LINE#         21
  C:0C3BH         LINE#         22
  C:0C3FH         LINE#         23
  C:0C4BH         LINE#         25
  -------         ENDPROC       _DELAY
  -------         PROC          _DELAY3
  D:0006H         SYMBOL        t
  -------         DO            
  D:0004H         SYMBOL        i
  D:0003H         SYMBOL        j
  -------         ENDDO         
  C:0C65H         LINE#         32
  C:0C65H         LINE#         33
  C:0C65H         LINE#         36
  C:0C6FH         LINE#         37
  C:0C7CH         LINE#         38
  -------         ENDPROC       _DELAY3
  -------         PROC          _DELAY4
  D:0006H         SYMBOL        t
  -------         DO            
  D:0004H         SYMBOL        i
  D:0003H         SYMBOL        j
  -------         ENDDO         
  C:0C7DH         LINE#         45
  C:0C7DH         LINE#         46
  C:0C7DH         LINE#         49
  C:0C87H         LINE#         50
  C:0C94H         LINE#         52
BL51 BANKED LINKER/LOCATER V6.22                                                      07/22/2014  14:58:07  PAGE 19


  -------         ENDPROC       _DELAY4
  -------         PROC          _DELAY_MS
  D:0006H         SYMBOL        count
  -------         DO            
  D:0004H         SYMBOL        i
  D:0002H         SYMBOL        j
  -------         ENDDO         
  C:0BF4H         LINE#         60
  C:0BF4H         LINE#         61
  C:0BF4H         LINE#         63
  C:0BFEH         LINE#         64
  C:0BFEH         LINE#         65
  C:0C0CH         LINE#         66
  C:0C13H         LINE#         67
  -------         ENDPROC       _DELAY_MS
  -------         PROC          _DELAY_US
  D:0006H         SYMBOL        count1
  -------         DO            
  D:0004H         SYMBOL        i
  D:0003H         SYMBOL        j
  -------         ENDDO         
  C:0C95H         LINE#         75
  C:0C95H         LINE#         76
  C:0C95H         LINE#         79
  C:0C9FH         LINE#         80
  C:0C9FH         LINE#         81
  C:0CA5H         LINE#         82
  C:0CACH         LINE#         83
  -------         ENDPROC       _DELAY_US
  -------         PROC          MAGNET_DELAY_CW
  -------         DO            
  D:0005H         SYMBOL        i
  D:0006H         SYMBOL        j
  -------         ENDDO         
  C:0B29H         LINE#         89
  C:0B29H         LINE#         90
  C:0B29H         LINE#         93
  C:0B2BH         LINE#         94
  C:0B2BH         LINE#         95
  C:0B39H         LINE#         96
  C:0B3DH         LINE#         97
  C:0B3FH         LINE#         98
  C:0B3FH         LINE#         99
  C:0B42H         LINE#         100
  C:0B42H         LINE#         101
  C:0B50H         LINE#         102
  C:0B50H         LINE#         104
  C:0B50H         LINE#         106
  C:0B50H         LINE#         107
  C:0B54H         LINE#         108
  -------         ENDPROC       MAGNET_DELAY_CW
  -------         PROC          MAGNET_DELAY_ACW
  -------         DO            
  D:0005H         SYMBOL        i
  D:0006H         SYMBOL        j
  -------         ENDDO         
  C:0B55H         LINE#         114
BL51 BANKED LINKER/LOCATER V6.22                                                      07/22/2014  14:58:07  PAGE 20


  C:0B55H         LINE#         115
  C:0B55H         LINE#         118
  C:0B57H         LINE#         119
  C:0B57H         LINE#         120
  C:0B65H         LINE#         121
  C:0B69H         LINE#         122
  C:0B6BH         LINE#         123
  C:0B6BH         LINE#         124
  C:0B6EH         LINE#         125
  C:0B6EH         LINE#         126
  C:0B7CH         LINE#         127
  C:0B7CH         LINE#         129
  C:0B7CH         LINE#         131
  C:0B7CH         LINE#         132
  C:0B80H         LINE#         133
  -------         ENDPROC       MAGNET_DELAY_ACW
  -------         PROC          MAGNET_DELAY_FOR_UNLOCK
  -------         DO            
  D:0007H         SYMBOL        i
  D:0004H         SYMBOL        j
  -------         ENDDO         
  C:0D08H         LINE#         139
  C:0D08H         LINE#         140
  C:0D08H         LINE#         143
  C:0D0AH         LINE#         144
  C:0D0AH         LINE#         145
  C:0D18H         LINE#         146
  C:0D1CH         LINE#         147
  -------         ENDPROC       MAGNET_DELAY_FOR_UNLOCK
  -------         ENDMOD        DELAY

  -------         MODULE        OPERATION
  C:0000H         SYMBOL        _ICE_DUMMY_
  D:0080H         PUBLIC        P0
  D:0090H         PUBLIC        P1
  D:00A0H         PUBLIC        P2
  D:00B0H         PUBLIC        P3
  D:00A8H         PUBLIC        IE
  D:00B8H         PUBLIC        IP
  D:00D8H         PUBLIC        WDCON0
  D:0098H         PUBLIC        SCON
  D:0088H         PUBLIC        TCON
  C:0CF2H         PUBLIC        slave_nearby_operation
  D:00E8H         PUBLIC        EIE
  D:00F8H         PUBLIC        ADCCON0
  D:00C0H         PUBLIC        I2CON
  D:00C8H         PUBLIC        T2CON
  C:0E40H         PUBLIC        slave_away_operation
  B:0022H.3       PUBLIC        enable_sensor_delayEN
  D:00D0H         PUBLIC        PSW
  -------         PROC          SLAVE_AWAY_OPERATION
  C:0E40H         LINE#         50
  C:0E40H         LINE#         51
  C:0E40H         LINE#         53
  C:0E43H         LINE#         56
  C:0E46H         LINE#         59
  C:0E48H         LINE#         60
BL51 BANKED LINKER/LOCATER V6.22                                                      07/22/2014  14:58:07  PAGE 21


  C:0E4BH         LINE#         63
  -------         ENDPROC       SLAVE_AWAY_OPERATION
  -------         PROC          SLAVE_NEARBY_OPERATION
  C:0CF2H         LINE#         70
  C:0CF2H         LINE#         71
  C:0CF2H         LINE#         74
  C:0CF5H         LINE#         77
  C:0CF8H         LINE#         79
  C:0CFFH         LINE#         81
  C:0D02H         LINE#         82
  C:0D05H         LINE#         84
  -------         ENDPROC       SLAVE_NEARBY_OPERATION
  -------         ENDMOD        OPERATION

  -------         MODULE        COMMUNICATION
  C:0000H         SYMBOL        _ICE_DUMMY_
  C:072AH         PUBLIC        receive_byte
  D:0080H         PUBLIC        P0
  D:0090H         PUBLIC        P1
  D:00A0H         PUBLIC        P2
  D:00B0H         PUBLIC        P3
  C:0ABEH         PUBLIC        receive_word
  D:00A8H         PUBLIC        IE
  C:07DDH         PUBLIC        ComMode_1_Data
  C:054FH         PUBLIC        ComMode_2_Data
  C:05AEH         PUBLIC        ComMode_3_Data
  C:060DH         PUBLIC        ComMode_4_Data
  D:00B8H         PUBLIC        IP
  C:066CH         PUBLIC        ComMode_5_Data
  C:06CBH         PUBLIC        ComMode_6_Data
  D:00D8H         PUBLIC        WDCON0
  B:0090H.0       PUBLIC        P10
  B:0090H.1       PUBLIC        P11
  D:0098H         PUBLIC        SCON
  D:0088H         PUBLIC        TCON
  C:0A01H         PUBLIC        initsignal
  B:00A0H.7       PUBLIC        transmiter_EN
  B:0090H.3       PUBLIC        receiver_EN
  D:00E8H         PUBLIC        EIE
  B:00A0H.2       PUBLIC        MagentControl_1
  B:00A0H.3       PUBLIC        MagentControl_2
  D:00F8H         PUBLIC        ADCCON0
  D:00C0H         PUBLIC        I2CON
  B:00A0H.6       PUBLIC        transmiter_power
  D:00C8H         PUBLIC        T2CON
  C:0929H         PUBLIC        initsignal2
  C:0A43H         PUBLIC        initsignal3
  C:096BH         PUBLIC        ComMode_1_Data_F2
  C:0881H         PUBLIC        send_code_to_lock_for_Unlock
  C:0831H         PUBLIC        send_code_to_lock
  D:00D0H         PUBLIC        PSW
  D:0017H         PUBLIC        myTxRxData
  -------         PROC          INITSIGNAL
  -------         DO            
  D:000AH         SYMBOL        k
  D:000BH         SYMBOL        k1
  D:000CH         SYMBOL        mystartbuffer
BL51 BANKED LINKER/LOCATER V6.22                                                      07/22/2014  14:58:07  PAGE 22


  -------         ENDDO         
  C:0A01H         LINE#         33
  C:0A01H         LINE#         34
  C:0A01H         LINE#         36
  C:0A04H         LINE#         37
  C:0A07H         LINE#         38
  C:0A07H         LINE#         39
  C:0A0AH         LINE#         40
  C:0A0AH         LINE#         41
  C:0A0CH         LINE#         42
  C:0A0CH         LINE#         43
  C:0A0CH         LINE#         44
  C:0A0CH         LINE#         45
  C:0A0CH         LINE#         47
  C:0A0CH         LINE#         48
  C:0A0EH         LINE#         49
  C:0A15H         LINE#         50
  C:0A15H         LINE#         51
  C:0A17H         LINE#         52
  C:0A1DH         LINE#         53
  C:0A24H         LINE#         54
  C:0A2DH         LINE#         55
  C:0A30H         LINE#         56
  C:0A37H         LINE#         57
  C:0A40H         LINE#         58
  C:0A42H         LINE#         59
  -------         ENDPROC       INITSIGNAL
  -------         PROC          L?0139
  -------         ENDPROC       L?0139
  -------         PROC          INITSIGNAL2
  -------         DO            
  D:005EH         SYMBOL        k
  D:005FH         SYMBOL        k1
  D:0060H         SYMBOL        mystartbuffer
  -------         ENDDO         
  C:0929H         LINE#         69
  C:0929H         LINE#         70
  C:0929H         LINE#         72
  C:092CH         LINE#         73
  C:092FH         LINE#         74
  C:092FH         LINE#         75
  C:0932H         LINE#         76
  C:0932H         LINE#         77
  C:0934H         LINE#         78
  C:0934H         LINE#         79
  C:0934H         LINE#         80
  C:0934H         LINE#         81
  C:0934H         LINE#         83
  C:0934H         LINE#         84
  C:0936H         LINE#         85
  C:093DH         LINE#         86
  C:093DH         LINE#         87
  C:093FH         LINE#         88
  C:0945H         LINE#         89
  C:094CH         LINE#         90
  C:0955H         LINE#         91
  C:0958H         LINE#         92
BL51 BANKED LINKER/LOCATER V6.22                                                      07/22/2014  14:58:07  PAGE 23


  C:095FH         LINE#         93
  C:0968H         LINE#         94
  C:096AH         LINE#         95
  -------         ENDPROC       INITSIGNAL2
  -------         PROC          INITSIGNAL3
  -------         DO            
  D:0061H         SYMBOL        k
  D:0062H         SYMBOL        k1
  D:0063H         SYMBOL        mystartbuffer
  -------         ENDDO         
  C:0A43H         LINE#         105
  C:0A43H         LINE#         106
  C:0A43H         LINE#         108
  C:0A46H         LINE#         109
  C:0A49H         LINE#         110
  C:0A49H         LINE#         111
  C:0A4CH         LINE#         112
  C:0A4CH         LINE#         113
  C:0A4EH         LINE#         114
  C:0A4EH         LINE#         115
  C:0A4EH         LINE#         116
  C:0A4EH         LINE#         117
  C:0A4EH         LINE#         119
  C:0A4EH         LINE#         120
  C:0A50H         LINE#         121
  C:0A57H         LINE#         122
  C:0A57H         LINE#         123
  C:0A59H         LINE#         124
  C:0A5FH         LINE#         125
  C:0A66H         LINE#         126
  C:0A6FH         LINE#         127
  C:0A72H         LINE#         128
  C:0A79H         LINE#         129
  C:0A82H         LINE#         130
  C:0A84H         LINE#         131
  -------         ENDPROC       INITSIGNAL3
  -------         PROC          COMMODE_1_DATA
  -------         DO            
  D:0064H         SYMBOL        i
  D:0065H         SYMBOL        n
  -------         ENDDO         
  C:07DDH         LINE#         143
  C:07DDH         LINE#         144
  C:07DDH         LINE#         146
  C:07DFH         LINE#         147
  C:07E1H         LINE#         148
  C:07E1H         LINE#         149
  C:07E1H         LINE#         150
  C:07E1H         LINE#         151
  C:07E1H         LINE#         157
  C:07E4H         LINE#         159
  C:07E7H         LINE#         160
  C:07E7H         LINE#         161
  C:07EAH         LINE#         162
  C:07EAH         LINE#         163
  C:07F3H         LINE#         164
  C:07F3H         LINE#         165
BL51 BANKED LINKER/LOCATER V6.22                                                      07/22/2014  14:58:07  PAGE 24


  C:07F5H         LINE#         166
  C:07F7H         LINE#         167
  C:07F9H         LINE#         169
  C:07F9H         LINE#         170
  C:07FBH         LINE#         171
  C:0802H         LINE#         172
  C:0802H         LINE#         173
  C:0804H         LINE#         174
  C:0811H         LINE#         175
  C:0818H         LINE#         176
  C:0821H         LINE#         177
  C:082AH         LINE#         178
  C:082CH         LINE#         179
  C:082EH         LINE#         180
  C:0830H         LINE#         181
  -------         ENDPROC       COMMODE_1_DATA
  -------         PROC          COMMODE_1_DATA_F2
  -------         DO            
  D:0066H         SYMBOL        i
  D:0067H         SYMBOL        n
  -------         ENDDO         
  C:096BH         LINE#         190
  C:096BH         LINE#         191
  C:096BH         LINE#         193
  C:096BH         LINE#         194
  C:096BH         LINE#         195
  C:096BH         LINE#         196
  C:096BH         LINE#         202
  C:096EH         LINE#         204
  C:0971H         LINE#         205
  C:0971H         LINE#         206
  C:0974H         LINE#         207
  C:0974H         LINE#         208
  C:097DH         LINE#         209
  C:097DH         LINE#         210
  C:097FH         LINE#         211
  C:0981H         LINE#         212
  C:0983H         LINE#         214
  C:0983H         LINE#         215
  C:0985H         LINE#         216
  C:098CH         LINE#         217
  C:098CH         LINE#         218
  C:098EH         LINE#         219
  C:099BH         LINE#         220
  C:09A2H         LINE#         221
  C:09ABH         LINE#         222
  C:09B4H         LINE#         223
  C:09B6H         LINE#         224
  -------         ENDPROC       COMMODE_1_DATA_F2
  -------         PROC          COMMODE_2_DATA
  -------         DO            
  D:0068H         SYMBOL        i
  D:0069H         SYMBOL        n
  -------         ENDDO         
  C:054FH         LINE#         231
  C:054FH         LINE#         232
  C:054FH         LINE#         234
BL51 BANKED LINKER/LOCATER V6.22                                                      07/22/2014  14:58:07  PAGE 25


  C:0551H         LINE#         235
  C:0553H         LINE#         236
  C:0555H         LINE#         237
  C:0558H         LINE#         238
  C:055BH         LINE#         239
  C:055EH         LINE#         245
  C:0561H         LINE#         247
  C:0564H         LINE#         248
  C:0564H         LINE#         249
  C:0567H         LINE#         250
  C:0567H         LINE#         251
  C:0570H         LINE#         252
  C:0570H         LINE#         253
  C:0572H         LINE#         254
  C:0574H         LINE#         255
  C:0576H         LINE#         257
  C:0576H         LINE#         258
  C:0578H         LINE#         259
  C:057FH         LINE#         260
  C:057FH         LINE#         261
  C:0581H         LINE#         262
  C:058EH         LINE#         263
  C:0595H         LINE#         264
  C:059EH         LINE#         265
  C:05A7H         LINE#         266
  C:05A9H         LINE#         267
  C:05ABH         LINE#         268
  C:05ADH         LINE#         269
  -------         ENDPROC       COMMODE_2_DATA
  -------         PROC          COMMODE_3_DATA
  -------         DO            
  D:0008H         SYMBOL        i
  D:0009H         SYMBOL        n
  -------         ENDDO         
  C:05AEH         LINE#         277
  C:05AEH         LINE#         278
  C:05AEH         LINE#         281
  C:05B0H         LINE#         282
  C:05B2H         LINE#         283
  C:05B4H         LINE#         284
  C:05B7H         LINE#         285
  C:05BAH         LINE#         286
  C:05BDH         LINE#         292
  C:05C0H         LINE#         294
  C:05C3H         LINE#         295
  C:05C3H         LINE#         296
  C:05C6H         LINE#         297
  C:05C6H         LINE#         298
  C:05CFH         LINE#         299
  C:05CFH         LINE#         300
  C:05D1H         LINE#         301
  C:05D3H         LINE#         302
  C:05D5H         LINE#         304
  C:05D5H         LINE#         305
  C:05D7H         LINE#         306
  C:05DEH         LINE#         307
  C:05DEH         LINE#         308
BL51 BANKED LINKER/LOCATER V6.22                                                      07/22/2014  14:58:07  PAGE 26


  C:05E0H         LINE#         309
  C:05EDH         LINE#         310
  C:05F4H         LINE#         311
  C:05FDH         LINE#         312
  C:0606H         LINE#         313
  C:0608H         LINE#         314
  C:060AH         LINE#         315
  C:060CH         LINE#         316
  -------         ENDPROC       COMMODE_3_DATA
  -------         PROC          COMMODE_4_DATA
  -------         DO            
  D:006AH         SYMBOL        i
  D:006BH         SYMBOL        n
  -------         ENDDO         
  C:060DH         LINE#         324
  C:060DH         LINE#         325
  C:060DH         LINE#         327
  C:060FH         LINE#         328
  C:0611H         LINE#         329
  C:0613H         LINE#         330
  C:0616H         LINE#         331
  C:0619H         LINE#         332
  C:061CH         LINE#         338
  C:061FH         LINE#         340
  C:0622H         LINE#         341
  C:0622H         LINE#         342
  C:0625H         LINE#         343
  C:0625H         LINE#         344
  C:062EH         LINE#         345
  C:062EH         LINE#         346
  C:0630H         LINE#         347
  C:0632H         LINE#         348
  C:0634H         LINE#         350
  C:0634H         LINE#         351
  C:0636H         LINE#         352
  C:063DH         LINE#         353
  C:063DH         LINE#         354
  C:063FH         LINE#         355
  C:064CH         LINE#         356
  C:0653H         LINE#         357
  C:065CH         LINE#         358
  C:0665H         LINE#         359
  C:0667H         LINE#         360
  C:0669H         LINE#         361
  C:066BH         LINE#         362
  -------         ENDPROC       COMMODE_4_DATA
  -------         PROC          COMMODE_5_DATA
  -------         DO            
  D:006CH         SYMBOL        i
  D:006DH         SYMBOL        n
  -------         ENDDO         
  C:066CH         LINE#         370
  C:066CH         LINE#         371
  C:066CH         LINE#         373
  C:066EH         LINE#         374
  C:0670H         LINE#         375
  C:0672H         LINE#         376
BL51 BANKED LINKER/LOCATER V6.22                                                      07/22/2014  14:58:07  PAGE 27


  C:0675H         LINE#         377
  C:0678H         LINE#         378
  C:067BH         LINE#         384
  C:067EH         LINE#         386
  C:0681H         LINE#         387
  C:0681H         LINE#         388
  C:0684H         LINE#         389
  C:0684H         LINE#         390
  C:068DH         LINE#         391
  C:068DH         LINE#         392
  C:068FH         LINE#         393
  C:0691H         LINE#         394
  C:0693H         LINE#         396
  C:0693H         LINE#         397
  C:0695H         LINE#         398
  C:069CH         LINE#         399
  C:069CH         LINE#         400
  C:069EH         LINE#         401
  C:06ABH         LINE#         402
  C:06B2H         LINE#         403
  C:06BBH         LINE#         404
  C:06C4H         LINE#         405
  C:06C6H         LINE#         406
  C:06C8H         LINE#         407
  C:06CAH         LINE#         408
  -------         ENDPROC       COMMODE_5_DATA
  -------         PROC          COMMODE_6_DATA
  -------         DO            
  D:006EH         SYMBOL        i
  D:006FH         SYMBOL        n
  -------         ENDDO         
  C:06CBH         LINE#         416
  C:06CBH         LINE#         417
  C:06CBH         LINE#         419
  C:06CDH         LINE#         420
  C:06CFH         LINE#         421
  C:06D1H         LINE#         422
  C:06D4H         LINE#         423
  C:06D7H         LINE#         424
  C:06DAH         LINE#         430
  C:06DDH         LINE#         432
  C:06E0H         LINE#         433
  C:06E0H         LINE#         434
  C:06E3H         LINE#         435
  C:06E3H         LINE#         436
  C:06ECH         LINE#         437
  C:06ECH         LINE#         438
  C:06EEH         LINE#         439
  C:06F0H         LINE#         440
  C:06F2H         LINE#         442
  C:06F2H         LINE#         443
  C:06F4H         LINE#         444
  C:06FBH         LINE#         445
  C:06FBH         LINE#         446
  C:06FDH         LINE#         447
  C:070AH         LINE#         448
  C:0711H         LINE#         449
BL51 BANKED LINKER/LOCATER V6.22                                                      07/22/2014  14:58:07  PAGE 28


  C:071AH         LINE#         450
  C:0723H         LINE#         451
  C:0725H         LINE#         452
  C:0727H         LINE#         453
  C:0729H         LINE#         454
  -------         ENDPROC       COMMODE_6_DATA
  -------         PROC          RECEIVE_BYTE
  C:072AH         LINE#         460
  C:072AH         LINE#         461
  C:072AH         LINE#         463
  C:072DH         LINE#         464
  C:072DH         LINE#         466
  C:0734H         LINE#         467
  C:0734H         LINE#         468
  C:0737H         LINE#         469
  C:0737H         LINE#         470
  C:0739H         LINE#         471
  C:073AH         LINE#         474
  C:073AH         LINE#         476
  C:073DH         LINE#         477
  C:073DH         LINE#         479
  C:073FH         LINE#         482
  C:074DH         LINE#         483
  C:074DH         LINE#         485
  C:0753H         LINE#         486
  C:0756H         LINE#         487
  C:0756H         LINE#         488
  C:0756H         LINE#         489
  C:0758H         LINE#         491
  C:075FH         LINE#         492
  C:075FH         LINE#         494
  C:0765H         LINE#         495
  C:0768H         LINE#         496
  C:076AH         LINE#         497
  C:076DH         LINE#         498
  C:076FH         LINE#         501
  C:076FH         LINE#         503
  C:0771H         LINE#         504
  C:0771H         LINE#         506
  C:0774H         LINE#         507
  C:0775H         LINE#         509
  C:0775H         LINE#         511
  C:077EH         LINE#         512
  C:077EH         LINE#         513
  C:0781H         LINE#         514
  C:0783H         LINE#         515
  C:0785H         LINE#         516
  C:0785H         LINE#         517
  C:0785H         LINE#         518
  C:0785H         LINE#         519
  -------         ENDPROC       RECEIVE_BYTE
  -------         PROC          RECEIVE_WORD
  C:0ABEH         LINE#         525
  C:0ABEH         LINE#         526
  C:0ABEH         LINE#         528
  C:0AC4H         LINE#         529
  C:0AC4H         LINE#         530
BL51 BANKED LINKER/LOCATER V6.22                                                      07/22/2014  14:58:07  PAGE 29


  C:0AC6H         LINE#         532
  C:0ACDH         LINE#         535
  C:0AD6H         LINE#         536
  C:0AD6H         LINE#         537
  C:0AD9H         LINE#         538
  C:0ADAH         LINE#         540
  C:0AE4H         LINE#         541
  C:0AE4H         LINE#         542
  C:0AE7H         LINE#         543
  C:0AE8H         LINE#         544
  C:0AEDH         LINE#         545
  C:0AEDH         LINE#         546
  C:0AEFH         LINE#         547
  C:0AEFH         LINE#         548
  C:0AF1H         LINE#         550
  C:0AF1H         LINE#         551
  C:0AF4H         LINE#         552
  C:0AF4H         LINE#         553
  C:0AF4H         LINE#         554
  -------         ENDPROC       RECEIVE_WORD
  -------         PROC          SEND_CODE_TO_LOCK
  -------         DO            
  D:0008H         SYMBOL        i
  D:0009H         SYMBOL        n
  -------         ENDDO         
  C:0831H         LINE#         562
  C:0831H         LINE#         563
  C:0831H         LINE#         565
  C:0834H         LINE#         566
  C:0837H         LINE#         567
  C:083AH         LINE#         573
  C:083DH         LINE#         574
  C:083DH         LINE#         575
  C:0840H         LINE#         576
  C:0840H         LINE#         577
  C:0849H         LINE#         578
  C:0849H         LINE#         579
  C:084BH         LINE#         580
  C:084DH         LINE#         581
  C:084FH         LINE#         583
  C:084FH         LINE#         584
  C:0851H         LINE#         585
  C:0858H         LINE#         586
  C:0858H         LINE#         587
  C:085AH         LINE#         588
  C:0867H         LINE#         589
  C:086EH         LINE#         590
  C:0877H         LINE#         591
  C:0880H         LINE#         592
  -------         ENDPROC       SEND_CODE_TO_LOCK
  -------         PROC          SEND_CODE_TO_LOCK_FOR_UNLOCK
  -------         DO            
  D:0070H         SYMBOL        i
  D:0071H         SYMBOL        n
  -------         ENDDO         
  C:0881H         LINE#         600
  C:0881H         LINE#         601
BL51 BANKED LINKER/LOCATER V6.22                                                      07/22/2014  14:58:07  PAGE 30


  C:0881H         LINE#         603
  C:0884H         LINE#         604
  C:0887H         LINE#         605
  C:088AH         LINE#         611
  C:088DH         LINE#         612
  C:088DH         LINE#         613
  C:0890H         LINE#         614
  C:0890H         LINE#         615
  C:0899H         LINE#         616
  C:0899H         LINE#         617
  C:089BH         LINE#         618
  C:089DH         LINE#         619
  C:089FH         LINE#         621
  C:089FH         LINE#         622
  C:08A1H         LINE#         623
  C:08A8H         LINE#         624
  C:08A8H         LINE#         625
  C:08AAH         LINE#         626
  C:08B7H         LINE#         627
  C:08BEH         LINE#         628
  C:08C7H         LINE#         629
  C:08D0H         LINE#         630
  -------         ENDPROC       SEND_CODE_TO_LOCK_FOR_UNLOCK
  -------         ENDMOD        COMMUNICATION

  -------         MODULE        BATTERY
  C:0000H         SYMBOL        _ICE_DUMMY_
  D:0080H         PUBLIC        P0
  D:0090H         PUBLIC        P1
  D:00A0H         PUBLIC        P2
  D:00B0H         PUBLIC        P3
  B:0090H.4       PUBLIC        voice_EN
  D:00A8H         PUBLIC        IE
  D:00B8H         PUBLIC        IP
  C:0282H         PUBLIC        _verifybattery
  D:00D8H         PUBLIC        WDCON0
  D:0098H         PUBLIC        SCON
  D:0088H         PUBLIC        TCON
  D:00E8H         PUBLIC        EIE
  D:00F8H         PUBLIC        ADCCON0
  D:00C0H         PUBLIC        I2CON
  D:00C8H         PUBLIC        T2CON
  D:00D0H         PUBLIC        PSW
  -------         PROC          _VERIFYBATTERY
  D:0008H         SYMBOL        Check2
  C:0282H         LINE#         22
  C:0286H         LINE#         23
  C:0286H         LINE#         25
  C:0291H         LINE#         26
  C:0291H         LINE#         27
  C:0293H         LINE#         28
  C:0298H         LINE#         29
  C:029AH         LINE#         30
  C:029AH         LINE#         31
  C:029DH         LINE#         33
  C:02B3H         LINE#         34
  C:02B3H         LINE#         35
BL51 BANKED LINKER/LOCATER V6.22                                                      07/22/2014  14:58:07  PAGE 31


  C:02B5H         LINE#         36
  C:02BAH         LINE#         37
  C:02BCH         LINE#         38
  C:02BCH         LINE#         39
  C:02BEH         LINE#         41
  C:02D4H         LINE#         42
  C:02D4H         LINE#         43
  C:02D6H         LINE#         44
  C:02DBH         LINE#         45
  C:02DDH         LINE#         46
  C:02DDH         LINE#         47
  C:02DFH         LINE#         49
  C:02F5H         LINE#         50
  C:02F5H         LINE#         51
  C:02F7H         LINE#         52
  C:02FCH         LINE#         53
  C:02FEH         LINE#         54
  C:02FEH         LINE#         55
  C:0300H         LINE#         57
  C:0316H         LINE#         58
  C:0316H         LINE#         59
  C:0318H         LINE#         60
  C:031DH         LINE#         61
  C:0324H         LINE#         62
  C:0326H         LINE#         63
  C:0327H         LINE#         65
  C:0332H         LINE#         66
  C:0332H         LINE#         67
  C:0335H         LINE#         68
  C:0335H         LINE#         69
  -------         ENDPROC       _VERIFYBATTERY
  -------         ENDMOD        BATTERY

  -------         MODULE        AD
  C:0000H         SYMBOL        _ICE_DUMMY_
  D:0080H         PUBLIC        P0
  D:0090H         PUBLIC        P1
  D:00A0H         PUBLIC        P2
  D:00B0H         PUBLIC        P3
  D:00A8H         PUBLIC        IE
  D:00E2H         PUBLIC        ADCH
  B:00F8H.4       PUBLIC        ADCI
  D:00B8H         PUBLIC        IP
  B:00F8H.3       PUBLIC        ADCS
  D:00F6H         PUBLIC        P0DIDS
  D:00D8H         PUBLIC        WDCON0
  D:0098H         PUBLIC        SCON
  D:0088H         PUBLIC        TCON
  B:00F8H.0       PUBLIC        AADR0
  B:00F8H.1       PUBLIC        AADR1
  B:00F8H.2       PUBLIC        AADR2
  D:00E8H         PUBLIC        EIE
  D:00F8H         PUBLIC        ADCCON0
  D:00E1H         PUBLIC        ADCCON1
  D:00C0H         PUBLIC        I2CON
  D:00C8H         PUBLIC        T2CON
  C:0469H         PUBLIC        _GetADCResult
BL51 BANKED LINKER/LOCATER V6.22                                                      07/22/2014  14:58:07  PAGE 32


  D:00D0H         PUBLIC        PSW
  -------         PROC          _GETADCRESULT
  D:0007H         SYMBOL        ch
  -------         DO            
  D:0005H         SYMBOL        DataL
  D:0002H         SYMBOL        DataH
  -------         ENDDO         
  C:0469H         LINE#         18
  C:0469H         LINE#         19
  C:0469H         LINE#         20
  C:046AH         LINE#         21
  C:046BH         LINE#         23
  C:0470H         LINE#         24
  C:0470H         LINE#         26
  C:0473H         LINE#         28
  C:0475H         LINE#         29
  C:0477H         LINE#         30
  C:0479H         LINE#         32
  C:047CH         LINE#         34
  C:047EH         LINE#         35
  C:0480H         LINE#         37
  C:0482H         LINE#         38
  C:0489H         LINE#         40
  C:048DH         LINE#         41
  C:049FH         LINE#         43
  C:04A3H         LINE#         44
  C:04A3H         LINE#         46
  C:04A8H         LINE#         47
  C:04A8H         LINE#         49
  C:04ABH         LINE#         52
  C:04ADH         LINE#         53
  C:04AFH         LINE#         54
  C:04B1H         LINE#         56
  C:04B4H         LINE#         58
  C:04B6H         LINE#         59
  C:04B8H         LINE#         61
  C:04BAH         LINE#         62
  C:04C1H         LINE#         64
  C:04C7H         LINE#         65
  C:04D9H         LINE#         67
  C:04DCH         LINE#         68
  C:04DCH         LINE#         69
  -------         ENDPROC       _GETADCRESULT
  -------         ENDMOD        AD

  -------         MODULE        TIMER
  C:0000H         SYMBOL        _ICE_DUMMY_
  D:0080H         PUBLIC        P0
  D:0090H         PUBLIC        P1
  D:00A0H         PUBLIC        P2
  D:00B0H         PUBLIC        P3
  B:00A8H.7       PUBLIC        EA
  D:00A8H         PUBLIC        IE
  D:00B8H         PUBLIC        IP
  C:0B81H         PUBLIC        _InitT0
  C:04DDH         PUBLIC        _InitTimer
  D:00D8H         PUBLIC        WDCON0
BL51 BANKED LINKER/LOCATER V6.22                                                      07/22/2014  14:58:07  PAGE 33


  D:0087H         PUBLIC        PCON
  D:0098H         PUBLIC        SCON
  D:0057H         PUBLIC        timer0_8H
  D:0089H         PUBLIC        TMOD
  D:0088H         PUBLIC        TCON
  D:0058H         PUBLIC        timer1_8H
  D:0059H         PUBLIC        timer0_8L
  D:005AH         PUBLIC        timer1_8L
  B:00A8H.1       PUBLIC        ET0
  B:00A8H.3       PUBLIC        ET1
  D:008CH         PUBLIC        TH0
  D:008DH         PUBLIC        TH1
  D:008AH         PUBLIC        TL0
  D:008BH         PUBLIC        TL1
  D:00E8H         PUBLIC        EIE
  B:00B8H.3       PUBLIC        PT1
  B:0088H.4       PUBLIC        TR0
  B:0088H.6       PUBLIC        TR1
  D:00F8H         PUBLIC        ADCCON0
  D:00C0H         PUBLIC        I2CON
  D:00C8H         PUBLIC        T2CON
  C:0E81H         PUBLIC        sEOS_Go_To_Sleep
  D:00D0H         PUBLIC        PSW
  -------         PROC          _INITTIMER
  D:0007H         SYMBOL        Tick_ms_T0
  D:000DH         SYMBOL        Tick_us_T1
  -------         DO            
  D:000FH         SYMBOL        Inc_T0
  D:0013H         SYMBOL        Inc_T1
  D:0004H         SYMBOL        timer0_16
  D:0004H         SYMBOL        timer1_16
  -------         ENDDO         
  C:04DDH         LINE#         29
  C:04E1H         LINE#         30
  C:04E1H         LINE#         35
  C:04FBH         LINE#         36
  C:0501H         LINE#         37
  C:0503H         LINE#         38
  C:0505H         LINE#         41
  C:0529H         LINE#         42
  C:052FH         LINE#         43
  C:0531H         LINE#         44
  C:0533H         LINE#         46
  C:0536H         LINE#         48
  C:0539H         LINE#         49
  C:053CH         LINE#         50
  C:053FH         LINE#         51
  C:0542H         LINE#         53
  C:0544H         LINE#         54
  C:0546H         LINE#         55
  C:0548H         LINE#         56
  C:054AH         LINE#         57
  C:054CH         LINE#         58
  C:054EH         LINE#         59
  -------         ENDPROC       _INITTIMER
  -------         PROC          _INITT0
  D:0007H         SYMBOL        Tick_ms_T0
BL51 BANKED LINKER/LOCATER V6.22                                                      07/22/2014  14:58:07  PAGE 34


  -------         DO            
  D:0053H         SYMBOL        Inc_T0
  D:0004H         SYMBOL        timer0_16
  -------         ENDDO         
  C:0B81H         LINE#         64
  C:0B81H         LINE#         65
  C:0B81H         LINE#         70
  C:0B9BH         LINE#         71
  C:0BA1H         LINE#         72
  C:0BA3H         LINE#         73
  C:0BA5H         LINE#         74
  C:0BA8H         LINE#         75
  C:0BAAH         LINE#         76
  -------         ENDPROC       _INITT0
  -------         PROC          SEOS_GO_TO_SLEEP
  C:0E81H         LINE#         82
  C:0E81H         LINE#         83
  C:0E81H         LINE#         84
  C:0E84H         LINE#         85
  -------         ENDPROC       SEOS_GO_TO_SLEEP
  -------         ENDMOD        TIMER

  -------         MODULE        ?C?CLDPTR
  C:001EH         PUBLIC        ?C?CLDPTR
  -------         ENDMOD        ?C?CLDPTR

  -------         MODULE        ?C?LMUL
  C:0037H         PUBLIC        ?C?LMUL
  -------         ENDMOD        ?C?LMUL

  -------         MODULE        ?C?ULDIV
  C:00C2H         PUBLIC        ?C?ULDIV
  -------         ENDMOD        ?C?ULDIV

  -------         MODULE        ?C?LIMUL
  C:0154H         PUBLIC        ?C?LIMUL
  -------         ENDMOD        ?C?LIMUL

*** WARNING L16: UNCALLED SEGMENT, IGNORED FOR OVERLAY PROCESS
    SEGMENT: ?PR?HOST_2NDTOUCH_SPEECH?VOICE

*** WARNING L16: UNCALLED SEGMENT, IGNORED FOR OVERLAY PROCESS
    SEGMENT: ?PR?STOLEN_ALARM_SPEECH1?VOICE

*** WARNING L16: UNCALLED SEGMENT, IGNORED FOR OVERLAY PROCESS
    SEGMENT: ?PR?CUTTING_WIRE_VOICE?VOICE

*** WARNING L16: UNCALLED SEGMENT, IGNORED FOR OVERLAY PROCESS
    SEGMENT: ?PR?BATTERY_LOW_ALARM_SPEECH?VOICE

*** WARNING L16: UNCALLED SEGMENT, IGNORED FOR OVERLAY PROCESS
    SEGMENT: ?PR?BATTERY_HIGH_ALARM_SPEECH?VOICE

*** WARNING L16: UNCALLED SEGMENT, IGNORED FOR OVERLAY PROCESS
    SEGMENT: ?PR?ALARM_STOLEN_SPEECH?VOICE

*** WARNING L16: UNCALLED SEGMENT, IGNORED FOR OVERLAY PROCESS
BL51 BANKED LINKER/LOCATER V6.22                                                      07/22/2014  14:58:07  PAGE 35


    SEGMENT: ?PR?ALARM_RAISED_SPEECH?VOICE

*** WARNING L16: UNCALLED SEGMENT, IGNORED FOR OVERLAY PROCESS
    SEGMENT: ?PR?ALARM_FELL_SPEECH?VOICE

*** WARNING L16: UNCALLED SEGMENT, IGNORED FOR OVERLAY PROCESS
    SEGMENT: ?PR?HOST_BATTERY_HIGH_ALARM_SPEECH?VOICE

*** WARNING L16: UNCALLED SEGMENT, IGNORED FOR OVERLAY PROCESS
    SEGMENT: ?PR?BATTERY_STOLEN_SPEECH_F3?VOICE

*** WARNING L16: UNCALLED SEGMENT, IGNORED FOR OVERLAY PROCESS
    SEGMENT: ?PR?WIRE_BROKEN_SPEECH?VOICE

*** WARNING L16: UNCALLED SEGMENT, IGNORED FOR OVERLAY PROCESS
    SEGMENT: ?PR?INITUART?UART

*** WARNING L16: UNCALLED SEGMENT, IGNORED FOR OVERLAY PROCESS
    SEGMENT: ?PR?_SENDNBYTE?UART

*** WARNING L16: UNCALLED SEGMENT, IGNORED FOR OVERLAY PROCESS
    SEGMENT: ?PR?MYPWM?PWM

*** WARNING L16: UNCALLED SEGMENT, IGNORED FOR OVERLAY PROCESS
    SEGMENT: ?PR?MAGNET_CW_FOR_UNLOCK?OTHER

*** WARNING L16: UNCALLED SEGMENT, IGNORED FOR OVERLAY PROCESS
    SEGMENT: ?PR?ENABLE_SENSOR?OTHER

*** WARNING L16: UNCALLED SEGMENT, IGNORED FOR OVERLAY PROCESS
    SEGMENT: ?PR?MOTO_VIBRATION?OTHER

*** WARNING L16: UNCALLED SEGMENT, IGNORED FOR OVERLAY PROCESS
    SEGMENT: ?PR?SLAVE_AWAY_OPERATION?OPERATION

*** WARNING L16: UNCALLED SEGMENT, IGNORED FOR OVERLAY PROCESS
    SEGMENT: ?PR?SLAVE_NEARBY_OPERATION?OPERATION

*** WARNING L16: UNCALLED SEGMENT, IGNORED FOR OVERLAY PROCESS
    SEGMENT: ?PR?COMMODE_1_DATA?COMMUNICATION

*** WARNING L16: UNCALLED SEGMENT, IGNORED FOR OVERLAY PROCESS
    SEGMENT: ?PR?COMMODE_1_DATA_F2?COMMUNICATION

*** WARNING L16: UNCALLED SEGMENT, IGNORED FOR OVERLAY PROCESS
    SEGMENT: ?PR?COMMODE_2_DATA?COMMUNICATION

*** WARNING L16: UNCALLED SEGMENT, IGNORED FOR OVERLAY PROCESS
    SEGMENT: ?PR?COMMODE_4_DATA?COMMUNICATION

*** WARNING L16: UNCALLED SEGMENT, IGNORED FOR OVERLAY PROCESS
    SEGMENT: ?PR?COMMODE_5_DATA?COMMUNICATION

*** WARNING L16: UNCALLED SEGMENT, IGNORED FOR OVERLAY PROCESS
    SEGMENT: ?PR?COMMODE_6_DATA?COMMUNICATION

*** WARNING L16: UNCALLED SEGMENT, IGNORED FOR OVERLAY PROCESS
BL51 BANKED LINKER/LOCATER V6.22                                                      07/22/2014  14:58:07  PAGE 36


    SEGMENT: ?PR?_INITT0?TIMER

Program Size: data=115.4 xdata=0 code=3717
LINK/LOCATE RUN COMPLETE.  26 WARNING(S),  0 ERROR(S)
